target datalayout = "e-m:e-p270:32:32-p271:32:32-p272:64:64-i64:64-i128:128-f80:128-n8:16:32:64-S128"
target triple = "x86_64-pc-linux-gnu"

@ett_http_ntlmssp = internal global i32 0, align 4
@ntlmssp_handle = internal global ptr null, align 8
@gssapi_handle = internal global ptr null, align 8
@check_auth_ntlmssp.ntlm_headers = internal global [3 x ptr] [ptr @.str.468, ptr @.str.469, ptr null], align 16
@.str.470 = private unnamed_addr constant [22 x i8] c"NTLMSSP / GSSAPI Data\00", align 1
@.str.471 = private unnamed_addr constant [8 x i8] c"NTLMSSP\00", align 1

; Function Attrs: null_pointer_is_valid sspstrong uwtable
define internal void @dissect_http_ntlmssp(ptr noundef %0, ptr noundef %1, ptr noundef %2, ptr noundef %3) #0 {
  %5 = alloca ptr, align 8
  %6 = alloca ptr, align 8
  %7 = alloca ptr, align 8
  %8 = alloca ptr, align 8
  %9 = alloca ptr, align 8
  store ptr %0, ptr %5, align 8
  store ptr %1, ptr %6, align 8
  store ptr %2, ptr %7, align 8
  store ptr %3, ptr %8, align 8
  call void @llvm.lifetime.start.p0(i64 8, ptr %9) #19
  %10 = load ptr, ptr %5, align 8
  %11 = load ptr, ptr %8, align 8
  %12 = call ptr @base64_to_tvb(ptr noundef %10, ptr noundef %11)
  store ptr %12, ptr %9, align 8
  %13 = load ptr, ptr %6, align 8
  %14 = load ptr, ptr %9, align 8
  call void @add_new_data_source(ptr noundef %13, ptr noundef %14, ptr noundef @.str.470)
  %15 = load ptr, ptr %9, align 8
  %16 = call i32 @tvb_strneql(ptr noundef %15, i32 noundef 0, ptr noundef @.str.471, i64 noundef 7)
  %17 = icmp eq i32 %16, 0
  br i1 %17, label %18, label %24

18:                                               ; preds = %4
  %19 = load ptr, ptr @ntlmssp_handle, align 8
  %20 = load ptr, ptr %9, align 8
  %21 = load ptr, ptr %6, align 8
  %22 = load ptr, ptr %7, align 8
  %23 = call i32 @call_dissector(ptr noundef %19, ptr noundef %20, ptr noundef %21, ptr noundef %22)
  br label %30

24:                                               ; preds = %4
  %25 = load ptr, ptr @gssapi_handle, align 8
  %26 = load ptr, ptr %9, align 8
  %27 = load ptr, ptr %6, align 8
  %28 = load ptr, ptr %7, align 8
  %29 = call i32 @call_dissector(ptr noundef %25, ptr noundef %26, ptr noundef %27, ptr noundef %28)
  br label %30

30:                                               ; preds = %24, %18
  call void @llvm.lifetime.end.p0(i64 8, ptr %9) #19
  ret void
}

; Function Attrs: null_pointer_is_valid sspstrong uwtable
define internal zeroext i1 @check_auth_ntlmssp(ptr noundef %0, ptr noundef %1, ptr noundef %2, ptr noundef %3) #0 {
  %5 = alloca i1, align 1
  %6 = alloca ptr, align 8
  %7 = alloca ptr, align 8
  %8 = alloca ptr, align 8
  %9 = alloca ptr, align 8
  %10 = alloca ptr, align 8
  %11 = alloca i64, align 8
  %12 = alloca ptr, align 8
  %13 = alloca i32, align 4
  store ptr %0, ptr %6, align 8
  store ptr %1, ptr %7, align 8
  store ptr %2, ptr %8, align 8
  store ptr %3, ptr %9, align 8
  call void @llvm.lifetime.start.p0(i64 8, ptr %10) #19
  call void @llvm.lifetime.start.p0(i64 8, ptr %11) #19
  call void @llvm.lifetime.start.p0(i64 8, ptr %12) #19
  store ptr @check_auth_ntlmssp.ntlm_headers, ptr %10, align 8
  br label %14

14:                                               ; preds = %45, %4
  %15 = load ptr, ptr %10, align 8
  %16 = load ptr, ptr %15, align 8
  %17 = icmp ne ptr %16, null
  br i1 %17, label %18, label %48

18:                                               ; preds = %14
  %19 = load ptr, ptr %10, align 8
  %20 = load ptr, ptr %19, align 8
  %21 = call i64 @strlen(ptr noundef %20) #20
  store i64 %21, ptr %11, align 8
  %22 = load ptr, ptr %9, align 8
  %23 = load ptr, ptr %10, align 8
  %24 = load ptr, ptr %23, align 8
  %25 = load i64, ptr %11, align 8
  %26 = call i32 @strncmp(ptr noundef %22, ptr noundef %24, i64 noundef %25) #20
  %27 = icmp eq i32 %26, 0
  br i1 %27, label %28, label %44

28:                                               ; preds = %18
  %29 = load ptr, ptr %6, align 8
  %30 = icmp ne ptr %29, null
  br i1 %30, label %31, label %35

31:                                               ; preds = %28
  %32 = load ptr, ptr %6, align 8
  %33 = load i32, ptr @ett_http_ntlmssp, align 4
  %34 = call ptr @proto_item_add_subtree(ptr noundef %32, i32 noundef %33)
  store ptr %34, ptr %12, align 8
  br label %36

35:                                               ; preds = %28
  store ptr null, ptr %12, align 8
  br label %36

36:                                               ; preds = %35, %31
  %37 = load i64, ptr %11, align 8
  %38 = load ptr, ptr %9, align 8
  %39 = getelementptr i8, ptr %38, i64 %37
  store ptr %39, ptr %9, align 8
  %40 = load ptr, ptr %7, align 8
  %41 = load ptr, ptr %8, align 8
  %42 = load ptr, ptr %12, align 8
  %43 = load ptr, ptr %9, align 8
  call void @dissect_http_ntlmssp(ptr noundef %40, ptr noundef %41, ptr noundef %42, ptr noundef %43)
  store i1 true, ptr %5, align 1
  store i32 1, ptr %13, align 4
  br label %49

44:                                               ; preds = %18
  br label %45

45:                                               ; preds = %44
  %46 = load ptr, ptr %10, align 8
  %47 = getelementptr ptr, ptr %46, i32 1
  store ptr %47, ptr %10, align 8
  br label %14, !llvm.loop !31

48:                                               ; preds = %14
  store i1 false, ptr %5, align 1
  store i32 1, ptr %13, align 4
  br label %49

49:                                               ; preds = %48, %36
  call void @llvm.lifetime.end.p0(i64 8, ptr %12) #19
  call void @llvm.lifetime.end.p0(i64 8, ptr %11) #19
  call void @llvm.lifetime.end.p0(i64 8, ptr %10) #19
  %50 = load i1, ptr %5, align 1
  ret i1 %50
}