; Function Attrs: null_pointer_is_valid sspstrong uwtable
define internal fastcc noundef zeroext i1 @check_auth_ntlmssp(ptr noundef %0, ptr noundef %1, ptr noundef %2, ptr noundef %3) unnamed_addr #0 {
  br label %8

5:                                                ; preds = %8
  %6 = getelementptr i8, ptr %.01521, i64 8
  %7 = load ptr, ptr %6, align 8
  %.not.not = icmp eq ptr %7, null
  br i1 %.not.not, label %.loopexit, label %8, !llvm.loop !34

8:                                                ; preds = %4, %5
  %9 = phi ptr [ @.str.468, %4 ], [ %7, %5 ]
  %.01521 = phi ptr [ @check_auth_ntlmssp.ntlm_headers, %4 ], [ %6, %5 ]
  %10 = tail call i64 @strlen(ptr noundef nonnull dereferenceable(1) %9) #20
  %11 = tail call i32 @strncmp(ptr noundef %3, ptr noundef nonnull %9, i64 noundef %10) #20
  %12 = icmp eq i32 %11, 0
  br i1 %12, label %13, label %5

13:                                               ; preds = %8
  %.not18 = icmp eq ptr %0, null
  br i1 %.not18, label %17, label %14

14:                                               ; preds = %13
  %15 = load i32, ptr @ett_http_ntlmssp, align 4
  %16 = tail call ptr @proto_item_add_subtree(ptr noundef nonnull %0, i32 noundef %15)
  br label %17

17:                                               ; preds = %13, %14
  %.0 = phi ptr [ %16, %14 ], [ null, %13 ]
  %18 = getelementptr i8, ptr %3, i64 %10
  %19 = tail call ptr @base64_to_tvb(ptr noundef %1, ptr noundef %18)
  tail call void @add_new_data_source(ptr noundef %2, ptr noundef %19, ptr noundef nonnull @.str.470)
  %20 = tail call i32 @tvb_strneql(ptr noundef %19, i32 noundef 0, ptr noundef nonnull @.str.471, i64 noundef 7)
  %21 = icmp eq i32 %20, 0
  %ntlmssp_handle.val.i = load ptr, ptr @ntlmssp_handle, align 8
  %gssapi_handle.val.i = load ptr, ptr @gssapi_handle, align 8
  %22 = select i1 %21, ptr %ntlmssp_handle.val.i, ptr %gssapi_handle.val.i
  %23 = tail call i32 @call_dissector(ptr noundef %22, ptr noundef %19, ptr noundef %2, ptr noundef %.0)
  br label %.loopexit

.loopexit:                                        ; preds = %5, %17
  ret i1 %12
}